target datalayout = "e-m:e-p270:32:32-p271:32:32-p272:64:64-i64:64-i128:128-f80:128-n8:16:32:64-S128"
target triple = "x86_64-pc-linux-gnu"

%struct.TupleTableSlotOps = type { i64, ptr, ptr, ptr, ptr, ptr, ptr, ptr, ptr, ptr, ptr, ptr, ptr }
%struct.TupleTableSlot = type { i32, i16, i16, ptr, ptr, ptr, ptr, ptr, %struct.ItemPointerData, i32 }
%struct.ItemPointerData = type { %struct.BlockIdData, i16 }
%struct.BlockIdData = type { i16, i16 }
%struct.HeapTupleData = type { i32, %struct.ItemPointerData, i32, ptr }
%struct.MinimalTupleTableSlot = type { %struct.TupleTableSlot, ptr, ptr, %struct.HeapTupleData, i32 }
%struct.MinimalTupleData = type { i32, [6 x i8], i16, i16, i8, [0 x i8] }

@CurrentMemoryContext = external global ptr, align 8
@.str.1 = private unnamed_addr constant [13 x i8] c"execTuples.c\00", align 1
@.str.3 = private unnamed_addr constant [56 x i8] c"trying to store a minimal tuple into wrong type of slot\00", align 1
@__func__.ExecStoreMinimalTuple = private unnamed_addr constant [22 x i8] c"ExecStoreMinimalTuple\00", align 1

; Function Attrs: inlinehint nounwind uwtable
define internal void @BlockIdSet(ptr noundef %0, i32 noundef %1) #4 {
  %3 = alloca ptr, align 8
  %4 = alloca i32, align 4
  store ptr %0, ptr %3, align 8
  store i32 %1, ptr %4, align 4
  %5 = load i32, ptr %4, align 4
  %6 = lshr i32 %5, 16
  %7 = trunc i32 %6 to i16
  %8 = load ptr, ptr %3, align 8
  %9 = getelementptr inbounds nuw %struct.BlockIdData, ptr %8, i32 0, i32 0
  store i16 %7, ptr %9, align 2
  %10 = load i32, ptr %4, align 4
  %11 = and i32 %10, 65535
  %12 = trunc i32 %11 to i16
  %13 = load ptr, ptr %3, align 8
  %14 = getelementptr inbounds nuw %struct.BlockIdData, ptr %13, i32 0, i32 1
  store i16 %12, ptr %14, align 2
  ret void
}

; Function Attrs: inlinehint nounwind uwtable
define internal void @ItemPointerSetInvalid(ptr noundef %0) #4 {
  %2 = alloca ptr, align 8
  store ptr %0, ptr %2, align 8
  %3 = load ptr, ptr %2, align 8
  %4 = getelementptr inbounds nuw %struct.ItemPointerData, ptr %3, i32 0, i32 0
  call void @BlockIdSet(ptr noundef %4, i32 noundef -1)
  %5 = load ptr, ptr %2, align 8
  %6 = getelementptr inbounds nuw %struct.ItemPointerData, ptr %5, i32 0, i32 1
  store i16 0, ptr %6, align 2
  ret void
}

; Function Attrs: nounwind uwtable
define internal void @tts_minimal_clear(ptr noundef %0) #0 {
  %2 = alloca ptr, align 8
  %3 = alloca ptr, align 8
  store ptr %0, ptr %2, align 8
  call void @llvm.lifetime.start.p0(i64 8, ptr %3) #10
  %4 = load ptr, ptr %2, align 8
  store ptr %4, ptr %3, align 8
  %5 = load ptr, ptr %2, align 8
  %6 = getelementptr inbounds nuw %struct.TupleTableSlot, ptr %5, i32 0, i32 1
  %7 = load i16, ptr %6, align 4
  %8 = zext i16 %7 to i32
  %9 = and i32 %8, 4
  %10 = icmp ne i32 %9, 0
  br i1 %10, label %11, label %21

11:                                               ; preds = %1
  %12 = load ptr, ptr %3, align 8
  %13 = getelementptr inbounds nuw %struct.MinimalTupleTableSlot, ptr %12, i32 0, i32 2
  %14 = load ptr, ptr %13, align 8
  call void @heap_free_minimal_tuple(ptr noundef %14)
  %15 = load ptr, ptr %2, align 8
  %16 = getelementptr inbounds nuw %struct.TupleTableSlot, ptr %15, i32 0, i32 1
  %17 = load i16, ptr %16, align 4
  %18 = zext i16 %17 to i32
  %19 = and i32 %18, -5
  %20 = trunc i32 %19 to i16
  store i16 %20, ptr %16, align 4
  br label %21

21:                                               ; preds = %11, %1
  %22 = load ptr, ptr %2, align 8
  %23 = getelementptr inbounds nuw %struct.TupleTableSlot, ptr %22, i32 0, i32 2
  store i16 0, ptr %23, align 2
  %24 = load ptr, ptr %2, align 8
  %25 = getelementptr inbounds nuw %struct.TupleTableSlot, ptr %24, i32 0, i32 1
  %26 = load i16, ptr %25, align 4
  %27 = zext i16 %26 to i32
  %28 = or i32 %27, 2
  %29 = trunc i32 %28 to i16
  store i16 %29, ptr %25, align 4
  %30 = load ptr, ptr %2, align 8
  %31 = getelementptr inbounds nuw %struct.TupleTableSlot, ptr %30, i32 0, i32 8
  call void @ItemPointerSetInvalid(ptr noundef %31)
  %32 = load ptr, ptr %3, align 8
  %33 = getelementptr inbounds nuw %struct.MinimalTupleTableSlot, ptr %32, i32 0, i32 4
  store i32 0, ptr %33, align 8
  %34 = load ptr, ptr %3, align 8
  %35 = getelementptr inbounds nuw %struct.MinimalTupleTableSlot, ptr %34, i32 0, i32 2
  store ptr null, ptr %35, align 8
  call void @llvm.lifetime.end.p0(i64 8, ptr %3) #10
  ret void
}

; Function Attrs: nounwind uwtable
define internal void @tts_minimal_store_tuple(ptr noundef %0, ptr noundef %1, i1 noundef zeroext %2) #0 {
  %4 = alloca ptr, align 8
  %5 = alloca ptr, align 8
  %6 = alloca i8, align 1
  %7 = alloca ptr, align 8
  store ptr %0, ptr %4, align 8
  store ptr %1, ptr %5, align 8
  %8 = zext i1 %2 to i8
  store i8 %8, ptr %6, align 1
  call void @llvm.lifetime.start.p0(i64 8, ptr %7) #10
  %9 = load ptr, ptr %4, align 8
  store ptr %9, ptr %7, align 8
  %10 = load ptr, ptr %4, align 8
  call void @tts_minimal_clear(ptr noundef %10)
  %11 = load ptr, ptr %4, align 8
  %12 = getelementptr inbounds nuw %struct.TupleTableSlot, ptr %11, i32 0, i32 1
  %13 = load i16, ptr %12, align 4
  %14 = zext i16 %13 to i32
  %15 = and i32 %14, -3
  %16 = trunc i32 %15 to i16
  store i16 %16, ptr %12, align 4
  %17 = load ptr, ptr %4, align 8
  %18 = getelementptr inbounds nuw %struct.TupleTableSlot, ptr %17, i32 0, i32 2
  store i16 0, ptr %18, align 2
  %19 = load ptr, ptr %7, align 8
  %20 = getelementptr inbounds nuw %struct.MinimalTupleTableSlot, ptr %19, i32 0, i32 4
  store i32 0, ptr %20, align 8
  %21 = load ptr, ptr %5, align 8
  %22 = load ptr, ptr %7, align 8
  %23 = getelementptr inbounds nuw %struct.MinimalTupleTableSlot, ptr %22, i32 0, i32 2
  store ptr %21, ptr %23, align 8
  %24 = load ptr, ptr %5, align 8
  %25 = getelementptr inbounds nuw %struct.MinimalTupleData, ptr %24, i32 0, i32 0
  %26 = load i32, ptr %25, align 4
  %27 = zext i32 %26 to i64
  %28 = add i64 %27, 8
  %29 = trunc i64 %28 to i32
  %30 = load ptr, ptr %7, align 8
  %31 = getelementptr inbounds nuw %struct.MinimalTupleTableSlot, ptr %30, i32 0, i32 3
  %32 = getelementptr inbounds nuw %struct.HeapTupleData, ptr %31, i32 0, i32 0
  store i32 %29, ptr %32, align 8
  %33 = load ptr, ptr %5, align 8
  %34 = getelementptr inbounds i8, ptr %33, i64 -8
  %35 = load ptr, ptr %7, align 8
  %36 = getelementptr inbounds nuw %struct.MinimalTupleTableSlot, ptr %35, i32 0, i32 3
  %37 = getelementptr inbounds nuw %struct.HeapTupleData, ptr %36, i32 0, i32 3
  store ptr %34, ptr %37, align 8
  %38 = load i8, ptr %6, align 1, !range !4, !noundef !5
  %39 = trunc i8 %38 to i1
  br i1 %39, label %40, label %47

40:                                               ; preds = %3
  %41 = load ptr, ptr %4, align 8
  %42 = getelementptr inbounds nuw %struct.TupleTableSlot, ptr %41, i32 0, i32 1
  %43 = load i16, ptr %42, align 4
  %44 = zext i16 %43 to i32
  %45 = or i32 %44, 4
  %46 = trunc i32 %45 to i16
  store i16 %46, ptr %42, align 4
  br label %47

47:                                               ; preds = %40, %3
  call void @llvm.lifetime.end.p0(i64 8, ptr %7) #10
  ret void
}

; Function Attrs: nounwind uwtable
define dso_local ptr @ExecStoreMinimalTuple(ptr noundef %0, ptr noundef %1, i1 noundef zeroext %2) #0 {
  %4 = alloca ptr, align 8
  %5 = alloca ptr, align 8
  %6 = alloca i8, align 1
  store ptr %0, ptr %4, align 8
  store ptr %1, ptr %5, align 8
  %7 = zext i1 %2 to i8
  store i8 %7, ptr %6, align 1
  %8 = load ptr, ptr %5, align 8
  %9 = getelementptr inbounds nuw %struct.TupleTableSlot, ptr %8, i32 0, i32 3
  %10 = load ptr, ptr %9, align 8
  %11 = icmp eq ptr %10, @TTSOpsMinimalTuple
  %12 = xor i1 %11, true
  %13 = zext i1 %12 to i32
  %14 = icmp ne i32 %13, 0
  %15 = zext i1 %14 to i32
  %16 = sext i32 %15 to i64
  %17 = call i64 @llvm.expect.i64(i64 %16, i64 0)
  %18 = icmp ne i64 %17, 0
  br i1 %18, label %19, label %29

19:                                               ; preds = %3
  br label %20

20:                                               ; preds = %19
  br i1 true, label %21, label %23

21:                                               ; preds = %20
  %22 = call zeroext i1 @errstart_cold(i32 noundef 21, ptr noundef null) #11
  br i1 %22, label %25, label %27

23:                                               ; preds = %20
  %24 = call zeroext i1 @errstart(i32 noundef 21, ptr noundef null)
  br i1 %24, label %25, label %27

25:                                               ; preds = %23, %21
  %26 = call i32 (ptr, ...) @errmsg_internal(ptr noundef @.str.3)
  call void @errfinish(ptr noundef @.str.1, i32 noundef 1645, ptr noundef @__func__.ExecStoreMinimalTuple)
  br label %27

27:                                               ; preds = %25, %23, %21
  unreachable

28:                                               ; No predecessors!
  br label %29

29:                                               ; preds = %28, %3
  %30 = load ptr, ptr %5, align 8
  %31 = load ptr, ptr %4, align 8
  %32 = load i8, ptr %6, align 1, !range !4, !noundef !5
  %33 = trunc i8 %32 to i1
  call void @tts_minimal_store_tuple(ptr noundef %30, ptr noundef %31, i1 noundef zeroext %33)
  %34 = load ptr, ptr %5, align 8
  ret ptr %34
}

; Function Attrs: inlinehint nounwind uwtable
define internal ptr @ExecCopySlotMinimalTuple(ptr noundef %0) #4 {
  %2 = alloca ptr, align 8
  store ptr %0, ptr %2, align 8
  %3 = load ptr, ptr %2, align 8
  %4 = getelementptr inbounds nuw %struct.TupleTableSlot, ptr %3, i32 0, i32 3
  %5 = load ptr, ptr %4, align 8
  %6 = getelementptr inbounds nuw %struct.TupleTableSlotOps, ptr %5, i32 0, i32 12
  %7 = load ptr, ptr %6, align 8
  %8 = load ptr, ptr %2, align 8
  %9 = call ptr %7(ptr noundef %8)
  ret ptr %9
}

; Function Attrs: inlinehint nounwind uwtable
define internal ptr @MemoryContextSwitchTo(ptr noundef %0) #4 {
  %2 = alloca ptr, align 8
  %3 = alloca ptr, align 8
  store ptr %0, ptr %2, align 8
  call void @llvm.lifetime.start.p0(i64 8, ptr %3) #10
  %4 = load ptr, ptr @CurrentMemoryContext, align 8
  store ptr %4, ptr %3, align 8
  %5 = load ptr, ptr %2, align 8
  store ptr %5, ptr @CurrentMemoryContext, align 8
  %6 = load ptr, ptr %3, align 8
  call void @llvm.lifetime.end.p0(i64 8, ptr %3) #10
  ret ptr %6
}

; Function Attrs: nounwind uwtable
define internal void @tts_minimal_copyslot(ptr noundef %0, ptr noundef %1) #0 {
  %3 = alloca ptr, align 8
  %4 = alloca ptr, align 8
  %5 = alloca ptr, align 8
  %6 = alloca ptr, align 8
  store ptr %0, ptr %3, align 8
  store ptr %1, ptr %4, align 8
  call void @llvm.lifetime.start.p0(i64 8, ptr %5) #10
  call void @llvm.lifetime.start.p0(i64 8, ptr %6) #10
  %7 = load ptr, ptr %3, align 8
  %8 = getelementptr inbounds nuw %struct.TupleTableSlot, ptr %7, i32 0, i32 7
  %9 = load ptr, ptr %8, align 8
  %10 = call ptr @MemoryContextSwitchTo(ptr noundef %9)
  store ptr %10, ptr %5, align 8
  %11 = load ptr, ptr %4, align 8
  %12 = call ptr @ExecCopySlotMinimalTuple(ptr noundef %11)
  store ptr %12, ptr %6, align 8
  %13 = load ptr, ptr %5, align 8
  %14 = call ptr @MemoryContextSwitchTo(ptr noundef %13)
  %15 = load ptr, ptr %6, align 8
  %16 = load ptr, ptr %3, align 8
  %17 = call ptr @ExecStoreMinimalTuple(ptr noundef %15, ptr noundef %16, i1 noundef zeroext true)
  call void @llvm.lifetime.end.p0(i64 8, ptr %6) #10
  call void @llvm.lifetime.end.p0(i64 8, ptr %5) #10
  ret void
}