; Function Attrs: nounwind uwtable
define internal void @tts_minimal_copyslot(ptr noundef captures(none) %0, ptr noundef %1) #1 {
  %3 = getelementptr inbounds nuw i8, ptr %0, i64 40
  %4 = load ptr, ptr %3, align 8
  %5 = load ptr, ptr @CurrentMemoryContext, align 8
  store ptr %4, ptr @CurrentMemoryContext, align 8
  %6 = getelementptr inbounds nuw i8, ptr %1, i64 8
  %7 = load ptr, ptr %6, align 8
  %8 = getelementptr inbounds nuw i8, ptr %7, i64 96
  %9 = load ptr, ptr %8, align 8
  %10 = tail call ptr %9(ptr noundef %1) #14
  store ptr %5, ptr @CurrentMemoryContext, align 8
  %11 = getelementptr inbounds nuw i8, ptr %0, i64 8
  %12 = load ptr, ptr %11, align 8
  %.not.i = icmp eq ptr %12, @TTSOpsMinimalTuple
  br i1 %.not.i, label %16, label %13, !prof !4

13:                                               ; preds = %2
  %14 = tail call zeroext i1 @errstart_cold(i32 noundef 21, ptr noundef null) #15
  tail call void @llvm.assume(i1 %14)
  %15 = tail call i32 (ptr, ...) @errmsg_internal(ptr noundef nonnull @.str.3) #14
  tail call void @errfinish(ptr noundef nonnull @.str.1, i32 noundef 1645, ptr noundef nonnull @__func__.ExecStoreMinimalTuple) #14
  unreachable

16:                                               ; preds = %2
  %17 = getelementptr inbounds nuw i8, ptr %0, i64 4
  %18 = load i16, ptr %17, align 4
  %19 = and i16 %18, 4
  %.not.i.i.i = icmp eq i16 %19, 0
  br i1 %.not.i.i.i, label %ExecStoreMinimalTuple.exit, label %20

20:                                               ; preds = %16
  %21 = getelementptr inbounds nuw i8, ptr %0, i64 72
  %22 = load ptr, ptr %21, align 8
  tail call void @heap_free_minimal_tuple(ptr noundef %22) #14
  %23 = load i16, ptr %17, align 4
  %24 = and i16 %23, -5
  br label %ExecStoreMinimalTuple.exit

ExecStoreMinimalTuple.exit:                       ; preds = %16, %20
  %25 = phi i16 [ %24, %20 ], [ %18, %16 ]
  %26 = getelementptr inbounds nuw i8, ptr %0, i64 6
  %27 = getelementptr inbounds nuw i8, ptr %0, i64 48
  store i16 -1, ptr %27, align 2
  %28 = getelementptr inbounds nuw i8, ptr %0, i64 50
  store i16 -1, ptr %28, align 2
  %29 = getelementptr inbounds nuw i8, ptr %0, i64 52
  store i16 0, ptr %29, align 2
  %30 = getelementptr inbounds nuw i8, ptr %0, i64 104
  %31 = getelementptr inbounds nuw i8, ptr %0, i64 72
  %32 = and i16 %25, -3
  store i16 %32, ptr %17, align 4
  store i16 0, ptr %26, align 2
  store i32 0, ptr %30, align 8
  store ptr %10, ptr %31, align 8
  %33 = load i32, ptr %10, align 4
  %34 = add i32 %33, 8
  %35 = getelementptr inbounds nuw i8, ptr %0, i64 80
  store i32 %34, ptr %35, align 8
  %36 = getelementptr inbounds i8, ptr %10, i64 -8
  %37 = getelementptr inbounds nuw i8, ptr %0, i64 96
  store ptr %36, ptr %37, align 8
  %38 = or i16 %32, 4
  store i16 %38, ptr %17, align 4
  ret void
}